; Function Attrs: mustprogress nofree norecurse nosync nounwind willreturn memory(none) uwtable
define dso_local range(i64 12, 17179877384) i64 @GetIncrementalHeaderSize(i32 noundef %0) local_unnamed_addr #8 {
  %2 = zext i32 %0 to i64
  %3 = shl nuw nsw i64 %2, 2
  %4 = add nuw nsw i64 %3, 12
  %.not = icmp eq i32 %0, 0
  br i1 %.not, label %10, label %5

5:                                                ; preds = %1
  %6 = and i64 %4, 8188
  %.not7 = icmp eq i64 %6, 0
  br i1 %.not7, label %10, label %7

7:                                                ; preds = %5
  %8 = add nuw nsw i64 %3, 8204
  %9 = sub nuw nsw i64 %8, %6
  br label %10

10:                                               ; preds = %7, %5, %1
  %.0 = phi i64 [ %9, %7 ], [ %4, %5 ], [ %4, %1 ]
  ret i64 %.0
}